target datalayout = "e-m:e-p270:32:32-p271:32:32-p272:64:64-i64:64-i128:128-f80:128-n8:16:32:64-S128"
target triple = "x86_64-pc-linux-gnu"

%struct._object = type { %union.anon, ptr }
%union.anon = type { i64 }
%struct.paramspecobject = type { %struct._object, ptr, ptr, ptr, ptr, i8, i8, i8 }

; Function Attrs: inlinehint nounwind uwtable
define internal ptr @_Py_TYPE(ptr noundef %0) #3 {
  %2 = alloca ptr, align 8
  store ptr %0, ptr %2, align 8, !tbaa !4
  %3 = load ptr, ptr %2, align 8, !tbaa !4
  %4 = getelementptr inbounds nuw %struct._object, ptr %3, i32 0, i32 1
  %5 = load ptr, ptr %4, align 8, !tbaa !26
  ret ptr %5
}

; Function Attrs: nounwind uwtable
define internal i32 @paramspec_traverse(ptr noundef %0, ptr noundef %1, ptr noundef %2) #0 {
  %4 = alloca i32, align 4
  %5 = alloca ptr, align 8
  %6 = alloca ptr, align 8
  %7 = alloca ptr, align 8
  %8 = alloca i32, align 4
  %9 = alloca i32, align 4
  %10 = alloca ptr, align 8
  %11 = alloca i32, align 4
  %12 = alloca i32, align 4
  %13 = alloca i32, align 4
  store ptr %0, ptr %5, align 8, !tbaa !4
  store ptr %1, ptr %6, align 8, !tbaa !30
  store ptr %2, ptr %7, align 8, !tbaa !30
  br label %14

14:                                               ; preds = %3
  %15 = load ptr, ptr %5, align 8, !tbaa !4
  %16 = call ptr @_Py_TYPE(ptr noundef %15)
  %17 = icmp ne ptr %16, null
  br i1 %17, label %18, label %32

18:                                               ; preds = %14
  call void @llvm.lifetime.start.p0(i64 4, ptr %8) #6
  %19 = load ptr, ptr %6, align 8, !tbaa !30
  %20 = load ptr, ptr %5, align 8, !tbaa !4
  %21 = call ptr @_Py_TYPE(ptr noundef %20)
  %22 = load ptr, ptr %7, align 8, !tbaa !30
  %23 = call i32 %19(ptr noundef %21, ptr noundef %22)
  store i32 %23, ptr %8, align 4, !tbaa !13
  %24 = load i32, ptr %8, align 4, !tbaa !13
  %25 = icmp ne i32 %24, 0
  br i1 %25, label %26, label %28

26:                                               ; preds = %18
  %27 = load i32, ptr %8, align 4, !tbaa !13
  store i32 %27, ptr %4, align 4
  store i32 1, ptr %9, align 4
  br label %29

28:                                               ; preds = %18
  store i32 0, ptr %9, align 4
  br label %29

29:                                               ; preds = %28, %26
  call void @llvm.lifetime.end.p0(i64 4, ptr %8) #6
  %30 = load i32, ptr %9, align 4
  switch i32 %30, label %111 [
    i32 0, label %31
    i32 1, label %109
  ]

31:                                               ; preds = %29
  br label %32

32:                                               ; preds = %31, %14
  br label %33

33:                                               ; preds = %32
  call void @llvm.lifetime.start.p0(i64 8, ptr %10) #6
  %34 = load ptr, ptr %5, align 8, !tbaa !4
  store ptr %34, ptr %10, align 8, !tbaa !30
  br label %35

35:                                               ; preds = %33
  %36 = load ptr, ptr %10, align 8, !tbaa !30
  %37 = getelementptr inbounds nuw %struct.paramspecobject, ptr %36, i32 0, i32 2
  %38 = load ptr, ptr %37, align 8, !tbaa !131
  %39 = icmp ne ptr %38, null
  br i1 %39, label %40, label %55

40:                                               ; preds = %35
  call void @llvm.lifetime.start.p0(i64 4, ptr %11) #6
  %41 = load ptr, ptr %6, align 8, !tbaa !30
  %42 = load ptr, ptr %10, align 8, !tbaa !30
  %43 = getelementptr inbounds nuw %struct.paramspecobject, ptr %42, i32 0, i32 2
  %44 = load ptr, ptr %43, align 8, !tbaa !131
  %45 = load ptr, ptr %7, align 8, !tbaa !30
  %46 = call i32 %41(ptr noundef %44, ptr noundef %45)
  store i32 %46, ptr %11, align 4, !tbaa !13
  %47 = load i32, ptr %11, align 4, !tbaa !13
  %48 = icmp ne i32 %47, 0
  br i1 %48, label %49, label %51

49:                                               ; preds = %40
  %50 = load i32, ptr %11, align 4, !tbaa !13
  store i32 %50, ptr %4, align 4
  store i32 1, ptr %9, align 4
  br label %52

51:                                               ; preds = %40
  store i32 0, ptr %9, align 4
  br label %52

52:                                               ; preds = %51, %49
  call void @llvm.lifetime.end.p0(i64 4, ptr %11) #6
  %53 = load i32, ptr %9, align 4
  switch i32 %53, label %108 [
    i32 0, label %54
  ]

54:                                               ; preds = %52
  br label %55

55:                                               ; preds = %54, %35
  br label %56

56:                                               ; preds = %55
  br label %57

57:                                               ; preds = %56
  br label %58

58:                                               ; preds = %57
  %59 = load ptr, ptr %10, align 8, !tbaa !30
  %60 = getelementptr inbounds nuw %struct.paramspecobject, ptr %59, i32 0, i32 3
  %61 = load ptr, ptr %60, align 8, !tbaa !135
  %62 = icmp ne ptr %61, null
  br i1 %62, label %63, label %78

63:                                               ; preds = %58
  call void @llvm.lifetime.start.p0(i64 4, ptr %12) #6
  %64 = load ptr, ptr %6, align 8, !tbaa !30
  %65 = load ptr, ptr %10, align 8, !tbaa !30
  %66 = getelementptr inbounds nuw %struct.paramspecobject, ptr %65, i32 0, i32 3
  %67 = load ptr, ptr %66, align 8, !tbaa !135
  %68 = load ptr, ptr %7, align 8, !tbaa !30
  %69 = call i32 %64(ptr noundef %67, ptr noundef %68)
  store i32 %69, ptr %12, align 4, !tbaa !13
  %70 = load i32, ptr %12, align 4, !tbaa !13
  %71 = icmp ne i32 %70, 0
  br i1 %71, label %72, label %74

72:                                               ; preds = %63
  %73 = load i32, ptr %12, align 4, !tbaa !13
  store i32 %73, ptr %4, align 4
  store i32 1, ptr %9, align 4
  br label %75

74:                                               ; preds = %63
  store i32 0, ptr %9, align 4
  br label %75

75:                                               ; preds = %74, %72
  call void @llvm.lifetime.end.p0(i64 4, ptr %12) #6
  %76 = load i32, ptr %9, align 4
  switch i32 %76, label %108 [
    i32 0, label %77
  ]

77:                                               ; preds = %75
  br label %78

78:                                               ; preds = %77, %58
  br label %79

79:                                               ; preds = %78
  br label %80

80:                                               ; preds = %79
  br label %81

81:                                               ; preds = %80
  %82 = load ptr, ptr %10, align 8, !tbaa !30
  %83 = getelementptr inbounds nuw %struct.paramspecobject, ptr %82, i32 0, i32 4
  %84 = load ptr, ptr %83, align 8, !tbaa !136
  %85 = icmp ne ptr %84, null
  br i1 %85, label %86, label %101

86:                                               ; preds = %81
  call void @llvm.lifetime.start.p0(i64 4, ptr %13) #6
  %87 = load ptr, ptr %6, align 8, !tbaa !30
  %88 = load ptr, ptr %10, align 8, !tbaa !30
  %89 = getelementptr inbounds nuw %struct.paramspecobject, ptr %88, i32 0, i32 4
  %90 = load ptr, ptr %89, align 8, !tbaa !136
  %91 = load ptr, ptr %7, align 8, !tbaa !30
  %92 = call i32 %87(ptr noundef %90, ptr noundef %91)
  store i32 %92, ptr %13, align 4, !tbaa !13
  %93 = load i32, ptr %13, align 4, !tbaa !13
  %94 = icmp ne i32 %93, 0
  br i1 %94, label %95, label %97

95:                                               ; preds = %86
  %96 = load i32, ptr %13, align 4, !tbaa !13
  store i32 %96, ptr %4, align 4
  store i32 1, ptr %9, align 4
  br label %98

97:                                               ; preds = %86
  store i32 0, ptr %9, align 4
  br label %98

98:                                               ; preds = %97, %95
  call void @llvm.lifetime.end.p0(i64 4, ptr %13) #6
  %99 = load i32, ptr %9, align 4
  switch i32 %99, label %108 [
    i32 0, label %100
  ]

100:                                              ; preds = %98
  br label %101

101:                                              ; preds = %100, %81
  br label %102

102:                                              ; preds = %101
  br label %103

103:                                              ; preds = %102
  %104 = load ptr, ptr %5, align 8, !tbaa !4
  %105 = load ptr, ptr %6, align 8, !tbaa !30
  %106 = load ptr, ptr %7, align 8, !tbaa !30
  %107 = call i32 @PyObject_VisitManagedDict(ptr noundef %104, ptr noundef %105, ptr noundef %106)
  store i32 0, ptr %4, align 4
  store i32 1, ptr %9, align 4
  br label %108

108:                                              ; preds = %103, %98, %75, %52
  call void @llvm.lifetime.end.p0(i64 8, ptr %10) #6
  br label %109

109:                                              ; preds = %108, %29
  %110 = load i32, ptr %4, align 4
  ret i32 %110

111:                                              ; preds = %29
  unreachable
}