; Function Attrs: nounwind uwtable
define internal i32 @paramspec_traverse(ptr noundef %0, ptr noundef %1, ptr noundef %2) #0 {
  %4 = getelementptr i8, ptr %0, i64 8
  %.val50 = load ptr, ptr %4, align 8, !tbaa !18
  %.not = icmp eq ptr %.val50, null
  br i1 %.not, label %7, label %5

5:                                                ; preds = %3
  %6 = tail call i32 %1(ptr noundef nonnull %.val50, ptr noundef %2) #8
  %.not43.not = icmp eq i32 %6, 0
  br i1 %.not43.not, label %7, label %24

7:                                                ; preds = %5, %3
  %8 = getelementptr inbounds nuw i8, ptr %0, i64 24
  %9 = load ptr, ptr %8, align 8, !tbaa !128
  %.not44 = icmp eq ptr %9, null
  br i1 %.not44, label %12, label %10

10:                                               ; preds = %7
  %11 = tail call i32 %1(ptr noundef nonnull %9, ptr noundef %2) #8
  %.not45 = icmp eq i32 %11, 0
  br i1 %.not45, label %12, label %24

12:                                               ; preds = %7, %10
  %13 = getelementptr inbounds nuw i8, ptr %0, i64 32
  %14 = load ptr, ptr %13, align 8, !tbaa !140
  %.not46 = icmp eq ptr %14, null
  br i1 %.not46, label %17, label %15

15:                                               ; preds = %12
  %16 = tail call i32 %1(ptr noundef nonnull %14, ptr noundef %2) #8
  %.not47 = icmp eq i32 %16, 0
  br i1 %.not47, label %17, label %24

17:                                               ; preds = %12, %15
  %18 = getelementptr inbounds nuw i8, ptr %0, i64 40
  %19 = load ptr, ptr %18, align 8, !tbaa !141
  %.not48 = icmp eq ptr %19, null
  br i1 %.not48, label %22, label %20

20:                                               ; preds = %17
  %21 = tail call i32 %1(ptr noundef nonnull %19, ptr noundef %2) #8
  %.not49 = icmp eq i32 %21, 0
  br i1 %.not49, label %22, label %24

22:                                               ; preds = %20, %17
  %23 = tail call i32 @PyObject_VisitManagedDict(ptr noundef nonnull %0, ptr noundef %1, ptr noundef %2) #8
  br label %24

24:                                               ; preds = %5, %22, %20, %15, %10
  %.1 = phi i32 [ %6, %5 ], [ 0, %22 ], [ %21, %20 ], [ %16, %15 ], [ %11, %10 ]
  ret i32 %.1
}